; Function Attrs: mustprogress nounwind uwtable
define void @_ZNK7glslang17TSymbolTableLevel4dumpER9TInfoSinkb(ptr noundef nonnull readonly align 8 dereferenceable(101) %0, ptr noundef nonnull align 8 dereferenceable(96) %1, i1 noundef zeroext %2) local_unnamed_addr #0 align 2 {
  %4 = getelementptr inbounds nuw i8, ptr %0, i64 32
  %5 = load ptr, ptr %4, align 8
  %6 = getelementptr inbounds nuw i8, ptr %0, i64 16
  %.not5 = icmp eq ptr %5, %6
  br i1 %.not5, label %._crit_edge, label %.lr.ph

.lr.ph:                                           ; preds = %3, %.lr.ph
  %.sroa.02.06 = phi ptr [ %12, %.lr.ph ], [ %5, %3 ]
  %7 = getelementptr inbounds nuw i8, ptr %.sroa.02.06, i64 72
  %8 = load ptr, ptr %7, align 8
  %9 = load ptr, ptr %8, align 8
  %10 = getelementptr inbounds nuw i8, ptr %9, i64 152
  %11 = load ptr, ptr %10, align 8
  tail call void %11(ptr noundef nonnull align 8 dereferenceable(33) %8, ptr noundef nonnull align 8 dereferenceable(96) %1, i1 noundef zeroext %2) #18
  %12 = tail call noundef ptr @_ZSt18_Rb_tree_incrementPKSt18_Rb_tree_node_base(ptr noundef %.sroa.02.06) #20
  %.not = icmp eq ptr %12, %6
  br i1 %.not, label %._crit_edge, label %.lr.ph, !llvm.loop !35

._crit_edge:                                      ; preds = %.lr.ph, %3
  ret void
}